; Function Attrs: nounwind uwtable
define dso_local range(i32 -1, 1) i32 @check_object_signature(ptr noundef readonly captures(none) %0, ptr noundef readonly captures(none) %1, ptr noundef %2, i64 noundef %3, i32 noundef %4) local_unnamed_addr #1 {
  %6 = alloca %union.git_hash_ctx, align 8
  %7 = alloca [32 x i8], align 16
  %8 = alloca %struct.object_id, align 4
  %9 = getelementptr inbounds nuw i8, ptr %1, i64 32
  %10 = load i32, ptr %9, align 4, !tbaa !4
  %.not = icmp eq i32 %10, 0
  br i1 %.not, label %14, label %11

11:                                               ; preds = %5
  %12 = sext i32 %10 to i64
  %13 = getelementptr inbounds [3 x %struct.git_hash_algo], ptr @hash_algos, i64 0, i64 %12
  br label %17

14:                                               ; preds = %5
  %15 = getelementptr inbounds nuw i8, ptr %0, i64 400
  %16 = load ptr, ptr %15, align 8, !tbaa !12
  br label %17

17:                                               ; preds = %14, %11
  %18 = phi ptr [ %13, %11 ], [ %16, %14 ]
  call void @llvm.lifetime.start.p0(i64 36, ptr nonnull %8) #27
  %19 = tail call ptr @type_name(i32 noundef %4) #27
  call void @llvm.lifetime.start.p0(i64 32, ptr nonnull %7) #27
  call void @llvm.lifetime.start.p0(i64 2400, ptr nonnull %6) #27
  %20 = call i32 (ptr, i64, ptr, ...) @xsnprintf(ptr noundef nonnull %7, i64 noundef 32, ptr noundef nonnull @.str.76, ptr noundef %19, i64 noundef %3) #27
  %21 = add nsw i32 %20, 1
  %22 = getelementptr inbounds nuw i8, ptr %18, i64 40
  %23 = load ptr, ptr %22, align 8, !tbaa !100
  call void %23(ptr noundef nonnull %6) #27
  %24 = getelementptr inbounds nuw i8, ptr %18, i64 56
  %25 = load ptr, ptr %24, align 8, !tbaa !101
  %26 = sext i32 %21 to i64
  call void %25(ptr noundef nonnull %6, ptr noundef nonnull %7, i64 noundef %26) #27
  %27 = load ptr, ptr %24, align 8, !tbaa !101
  call void %27(ptr noundef nonnull %6, ptr noundef %2, i64 noundef %3) #27
  %28 = getelementptr inbounds nuw i8, ptr %18, i64 72
  %29 = load ptr, ptr %28, align 8, !tbaa !102
  call void %29(ptr noundef nonnull %8, ptr noundef nonnull %6) #27
  call void @llvm.lifetime.end.p0(i64 2400, ptr nonnull %6) #27
  call void @llvm.lifetime.end.p0(i64 32, ptr nonnull %7) #27
  %bcmp.i = call i32 @bcmp(ptr noundef nonnull readonly dereferenceable(32) %1, ptr noundef nonnull readonly dereferenceable(32) %8, i64 32)
  %.not.i = icmp ne i32 %bcmp.i, 0
  %sext = sext i1 %.not.i to i32
  call void @llvm.lifetime.end.p0(i64 36, ptr nonnull %8) #27
  ret i32 %sext
}